; Function Attrs: nounwind sspstrong uwtable
define internal void @e1000e_io_write(ptr noundef %opaque, i64 noundef %addr, i64 noundef %val, i32 %size) #0 {
entry:
  %_now.i.i21 = alloca %struct.timeval, align 8
  %_now.i.i7 = alloca %struct.timeval, align 8
  %_now.i.i = alloca %struct.timeval, align 8
  %idx = alloca i32, align 4
  store i32 0, ptr %idx, align 4
  switch i64 %addr, label %sw.default [
    i64 0, label %sw.bb
    i64 4, label %sw.bb1
  ]

sw.bb:                                            ; preds = %entry
  call void @llvm.lifetime.start.p0(i64 16, ptr nonnull %_now.i.i)
  %0 = load i32, ptr @trace_events_enabled_count, align 4
  %tobool.i.i = icmp ne i32 %0, 0
  %1 = load i16, ptr @_TRACE_E1000E_IO_WRITE_ADDR_DSTATE, align 2
  %tobool4.i.i = icmp ne i16 %1, 0
  %or.cond.i.i = select i1 %tobool.i.i, i1 %tobool4.i.i, i1 false
  br i1 %or.cond.i.i, label %land.lhs.true5.i.i, label %trace_e1000e_io_write_addr.exit

land.lhs.true5.i.i:                               ; preds = %sw.bb
  %2 = load i32, ptr @qemu_loglevel, align 4
  %and.i.i.i = and i32 %2, 32768
  %cmp.i.not.i.i = icmp eq i32 %and.i.i.i, 0
  br i1 %cmp.i.not.i.i, label %trace_e1000e_io_write_addr.exit, label %if.then.i.i

if.then.i.i:                                      ; preds = %land.lhs.true5.i.i
  %3 = load i8, ptr @message_with_timestamp, align 1
  %tobool7.i.i = trunc i8 %3 to i1
  br i1 %tobool7.i.i, label %if.then8.i.i, label %if.else.i.i

if.then8.i.i:                                     ; preds = %if.then.i.i
  %call9.i.i = call i32 @gettimeofday(ptr noundef nonnull %_now.i.i, ptr noundef null) #9
  %call10.i.i = tail call i32 @qemu_get_thread_id() #9
  %4 = load i64, ptr %_now.i.i, align 8
  %tv_usec.i.i = getelementptr inbounds nuw i8, ptr %_now.i.i, i64 8
  %5 = load i64, ptr %tv_usec.i.i, align 8
  tail call void (ptr, ...) @qemu_log(ptr noundef nonnull @.str.37, i32 noundef %call10.i.i, i64 noundef %4, i64 noundef %5, i64 noundef %val) #9
  br label %trace_e1000e_io_write_addr.exit

if.else.i.i:                                      ; preds = %if.then.i.i
  tail call void (ptr, ...) @qemu_log(ptr noundef nonnull @.str.38, i64 noundef %val) #9
  br label %trace_e1000e_io_write_addr.exit

trace_e1000e_io_write_addr.exit:                  ; preds = %sw.bb, %land.lhs.true5.i.i, %if.then8.i.i, %if.else.i.i
  call void @llvm.lifetime.end.p0(i64 16, ptr nonnull %_now.i.i)
  %conv = trunc i64 %val to i32
  %ioaddr = getelementptr inbounds nuw i8, ptr %opaque, i64 11920
  store i32 %conv, ptr %ioaddr, align 16
  br label %return

sw.bb1:                                           ; preds = %entry
  %6 = getelementptr i8, ptr %opaque, i64 11920
  %opaque.val = load i32, ptr %6, align 16
  %call = call fastcc zeroext i1 @e1000e_io_get_reg_index(i32 %opaque.val, ptr noundef %idx)
  br i1 %call, label %if.then, label %return

if.then:                                          ; preds = %sw.bb1
  %7 = load i32, ptr %idx, align 4
  %conv2 = zext i32 %7 to i64
  call void @llvm.lifetime.start.p0(i64 16, ptr nonnull %_now.i.i7)
  %8 = load i32, ptr @trace_events_enabled_count, align 4
  %tobool.i.i8 = icmp ne i32 %8, 0
  %9 = load i16, ptr @_TRACE_E1000E_IO_WRITE_DATA_DSTATE, align 2
  %tobool4.i.i9 = icmp ne i16 %9, 0
  %or.cond.i.i10 = select i1 %tobool.i.i8, i1 %tobool4.i.i9, i1 false
  br i1 %or.cond.i.i10, label %land.lhs.true5.i.i11, label %trace_e1000e_io_write_data.exit

land.lhs.true5.i.i11:                             ; preds = %if.then
  %10 = load i32, ptr @qemu_loglevel, align 4
  %and.i.i.i12 = and i32 %10, 32768
  %cmp.i.not.i.i13 = icmp eq i32 %and.i.i.i12, 0
  br i1 %cmp.i.not.i.i13, label %trace_e1000e_io_write_data.exit, label %if.then.i.i14

if.then.i.i14:                                    ; preds = %land.lhs.true5.i.i11
  %11 = load i8, ptr @message_with_timestamp, align 1
  %tobool7.i.i15 = trunc i8 %11 to i1
  br i1 %tobool7.i.i15, label %if.then8.i.i17, label %if.else.i.i16

if.then8.i.i17:                                   ; preds = %if.then.i.i14
  %call9.i.i18 = call i32 @gettimeofday(ptr noundef nonnull %_now.i.i7, ptr noundef null) #9
  %call10.i.i19 = tail call i32 @qemu_get_thread_id() #9
  %12 = load i64, ptr %_now.i.i7, align 8
  %tv_usec.i.i20 = getelementptr inbounds nuw i8, ptr %_now.i.i7, i64 8
  %13 = load i64, ptr %tv_usec.i.i20, align 8
  tail call void (ptr, ...) @qemu_log(ptr noundef nonnull @.str.39, i32 noundef %call10.i.i19, i64 noundef %12, i64 noundef %13, i64 noundef range(i64 0, 4294967296) %conv2, i64 noundef %val) #9
  br label %trace_e1000e_io_write_data.exit

if.else.i.i16:                                    ; preds = %if.then.i.i14
  tail call void (ptr, ...) @qemu_log(ptr noundef nonnull @.str.40, i64 noundef range(i64 0, 4294967296) %conv2, i64 noundef %val) #9
  br label %trace_e1000e_io_write_data.exit

trace_e1000e_io_write_data.exit:                  ; preds = %if.then, %land.lhs.true5.i.i11, %if.then8.i.i17, %if.else.i.i16
  call void @llvm.lifetime.end.p0(i64 16, ptr nonnull %_now.i.i7)
  %core = getelementptr inbounds nuw i8, ptr %opaque, i64 11936
  tail call void @e1000e_core_write(ptr noundef nonnull %core, i64 noundef %conv2, i64 noundef %val, i32 noundef 8) #9
  br label %return

sw.default:                                       ; preds = %entry
  call void @llvm.lifetime.start.p0(i64 16, ptr nonnull %_now.i.i21)
  %14 = load i32, ptr @trace_events_enabled_count, align 4
  %tobool.i.i22 = icmp ne i32 %14, 0
  %15 = load i16, ptr @_TRACE_E1000E_WRN_IO_WRITE_UNKNOWN_DSTATE, align 2
  %tobool4.i.i23 = icmp ne i16 %15, 0
  %or.cond.i.i24 = select i1 %tobool.i.i22, i1 %tobool4.i.i23, i1 false
  br i1 %or.cond.i.i24, label %land.lhs.true5.i.i25, label %trace_e1000e_wrn_io_write_unknown.exit

land.lhs.true5.i.i25:                             ; preds = %sw.default
  %16 = load i32, ptr @qemu_loglevel, align 4
  %and.i.i.i26 = and i32 %16, 32768
  %cmp.i.not.i.i27 = icmp eq i32 %and.i.i.i26, 0
  br i1 %cmp.i.not.i.i27, label %trace_e1000e_wrn_io_write_unknown.exit, label %if.then.i.i28

if.then.i.i28:                                    ; preds = %land.lhs.true5.i.i25
  %17 = load i8, ptr @message_with_timestamp, align 1
  %tobool7.i.i29 = trunc i8 %17 to i1
  br i1 %tobool7.i.i29, label %if.then8.i.i31, label %if.else.i.i30

if.then8.i.i31:                                   ; preds = %if.then.i.i28
  %call9.i.i32 = call i32 @gettimeofday(ptr noundef nonnull %_now.i.i21, ptr noundef null) #9
  %call10.i.i33 = tail call i32 @qemu_get_thread_id() #9
  %18 = load i64, ptr %_now.i.i21, align 8
  %tv_usec.i.i34 = getelementptr inbounds nuw i8, ptr %_now.i.i21, i64 8
  %19 = load i64, ptr %tv_usec.i.i34, align 8
  tail call void (ptr, ...) @qemu_log(ptr noundef nonnull @.str.41, i32 noundef %call10.i.i33, i64 noundef %18, i64 noundef %19, i64 noundef %addr) #9
  br label %trace_e1000e_wrn_io_write_unknown.exit

if.else.i.i30:                                    ; preds = %if.then.i.i28
  tail call void (ptr, ...) @qemu_log(ptr noundef nonnull @.str.42, i64 noundef %addr) #9
  br label %trace_e1000e_wrn_io_write_unknown.exit

trace_e1000e_wrn_io_write_unknown.exit:           ; preds = %sw.default, %land.lhs.true5.i.i25, %if.then8.i.i31, %if.else.i.i30
  call void @llvm.lifetime.end.p0(i64 16, ptr nonnull %_now.i.i21)
  br label %return

return:                                           ; preds = %sw.bb1, %trace_e1000e_io_write_data.exit, %trace_e1000e_wrn_io_write_unknown.exit, %trace_e1000e_io_write_addr.exit
  ret void
}